target datalayout = "e-m:e-p270:32:32-p271:32:32-p272:64:64-i64:64-i128:128-f80:128-n8:16:32:64-S128"
target triple = "x86_64-pc-linux-gnu"

@.str.14 = private unnamed_addr constant [26 x i8] c"../openssl/test/x509aux.c\00", align 1
@.str.15 = private unnamed_addr constant [28 x i8] c"Error parsing test options\0A\00", align 1
@.str.16 = private unnamed_addr constant [11 x i8] c"test_certs\00", align 1

; Function Attrs: nounwind uwtable
define dso_local i32 @setup_tests() #0 {
  %1 = alloca i32, align 4
  %2 = alloca i64, align 8
  %3 = alloca i32, align 4
  call void @llvm.lifetime.start.p0(i64 8, ptr %2) #5
  %4 = call i32 @test_skip_common_options()
  %5 = icmp ne i32 %4, 0
  br i1 %5, label %7, label %6

6:                                                ; preds = %0
  call void (ptr, i32, ptr, ...) @test_error(ptr noundef @.str.14, i32 noundef 175, ptr noundef @.str.15)
  store i32 0, ptr %1, align 4
  store i32 1, ptr %3, align 4
  br label %15

7:                                                ; preds = %0
  %8 = call i64 @test_get_argument_count()
  store i64 %8, ptr %2, align 8, !tbaa !4
  %9 = load i64, ptr %2, align 8, !tbaa !4
  %10 = icmp eq i64 %9, 0
  br i1 %10, label %11, label %12

11:                                               ; preds = %7
  store i32 0, ptr %1, align 4
  store i32 1, ptr %3, align 4
  br label %15

12:                                               ; preds = %7
  %13 = load i64, ptr %2, align 8, !tbaa !4
  %14 = trunc i64 %13 to i32
  call void @add_all_tests(ptr noundef @.str.16, ptr noundef @test_certs, i32 noundef %14, i32 noundef 1)
  store i32 1, ptr %1, align 4
  store i32 1, ptr %3, align 4
  br label %15

15:                                               ; preds = %12, %11, %6
  call void @llvm.lifetime.end.p0(i64 8, ptr %2) #5
  %16 = load i32, ptr %1, align 4
  ret i32 %16
}