; Function Attrs: nounwind uwtable
define dso_local range(i32 0, 2) i32 @setup_tests() local_unnamed_addr #1 {
  %1 = tail call i32 @test_skip_common_options() #6
  %.not = icmp eq i32 %1, 0
  br i1 %.not, label %2, label %3

2:                                                ; preds = %0
  tail call void (ptr, i32, ptr, ...) @test_error(ptr noundef nonnull @.str.14, i32 noundef 175, ptr noundef nonnull @.str.15) #6
  br label %8

3:                                                ; preds = %0
  %4 = tail call i64 @test_get_argument_count() #6
  %5 = icmp eq i64 %4, 0
  br i1 %5, label %8, label %6

6:                                                ; preds = %3
  %7 = trunc i64 %4 to i32
  tail call void @add_all_tests(ptr noundef nonnull @.str.16, ptr noundef nonnull @test_certs, i32 noundef %7, i32 noundef 1) #6
  br label %8

8:                                                ; preds = %3, %6, %2
  %.0 = phi i32 [ 1, %6 ], [ 0, %2 ], [ 0, %3 ]
  ret i32 %.0
}